target datalayout = "e-m:e-p270:32:32-p271:32:32-p272:64:64-i64:64-i128:128-f80:128-n8:16:32:64-S128"
target triple = "x86_64-pc-linux-gnu"

%struct.string_int_pair_st = type { ptr, i32 }

@.str.1 = private unnamed_addr constant [2 x i8] c"\0A\00", align 1
@.str.51 = private unnamed_addr constant [4 x i8] c">>>\00", align 1
@.str.52 = private unnamed_addr constant [4 x i8] c"<<<\00", align 1
@.str.53 = private unnamed_addr constant [1 x i8] zeroinitializer, align 1
@.str.54 = private unnamed_addr constant [4 x i8] c"???\00", align 1
@.str.55 = private unnamed_addr constant [19 x i8] c", ChangeCipherSpec\00", align 1
@.str.56 = private unnamed_addr constant [8 x i8] c", Alert\00", align 1
@.str.57 = private unnamed_addr constant [6 x i8] c", ???\00", align 1
@.str.58 = private unnamed_addr constant [10 x i8] c", warning\00", align 1
@.str.59 = private unnamed_addr constant [8 x i8] c", fatal\00", align 1
@.str.60 = private unnamed_addr constant [5 x i8] c" ???\00", align 1
@.str.61 = private unnamed_addr constant [12 x i8] c", Handshake\00", align 1
@.str.62 = private unnamed_addr constant [18 x i8] c", ApplicationData\00", align 1
@.str.63 = private unnamed_addr constant [15 x i8] c", RecordHeader\00", align 1
@.str.64 = private unnamed_addr constant [15 x i8] c", InnerContent\00", align 1
@.str.65 = private unnamed_addr constant [28 x i8] c", Unknown (content_type=%d)\00", align 1
@.str.66 = private unnamed_addr constant [62 x i8] c"Not TLS data or unknown version (version=%d, content_type=%d)\00", align 1
@.str.67 = private unnamed_addr constant [28 x i8] c"%s %s%s [length %04lx]%s%s\0A\00", align 1
@.str.68 = private unnamed_addr constant [4 x i8] c"   \00", align 1
@.str.69 = private unnamed_addr constant [5 x i8] c"\0A   \00", align 1
@.str.70 = private unnamed_addr constant [6 x i8] c" %02x\00", align 1
@.str.71 = private unnamed_addr constant [5 x i8] c" ...\00", align 1

; Function Attrs: nounwind uwtable
define internal ptr @lookup(i32 noundef %0, ptr noundef %1, ptr noundef %2) #0 {
  %4 = alloca ptr, align 8
  %5 = alloca i32, align 4
  %6 = alloca ptr, align 8
  %7 = alloca ptr, align 8
  store i32 %0, ptr %5, align 4, !tbaa !3
  store ptr %1, ptr %6, align 8, !tbaa !59
  store ptr %2, ptr %7, align 8, !tbaa !21
  br label %8

8:                                                ; preds = %24, %3
  %9 = load ptr, ptr %6, align 8, !tbaa !59
  %10 = getelementptr inbounds nuw %struct.string_int_pair_st, ptr %9, i32 0, i32 0
  %11 = load ptr, ptr %10, align 8, !tbaa !61
  %12 = icmp ne ptr %11, null
  br i1 %12, label %13, label %27

13:                                               ; preds = %8
  %14 = load ptr, ptr %6, align 8, !tbaa !59
  %15 = getelementptr inbounds nuw %struct.string_int_pair_st, ptr %14, i32 0, i32 1
  %16 = load i32, ptr %15, align 8, !tbaa !63
  %17 = load i32, ptr %5, align 4, !tbaa !3
  %18 = icmp eq i32 %16, %17
  br i1 %18, label %19, label %23

19:                                               ; preds = %13
  %20 = load ptr, ptr %6, align 8, !tbaa !59
  %21 = getelementptr inbounds nuw %struct.string_int_pair_st, ptr %20, i32 0, i32 0
  %22 = load ptr, ptr %21, align 8, !tbaa !61
  store ptr %22, ptr %4, align 8
  br label %29

23:                                               ; preds = %13
  br label %24

24:                                               ; preds = %23
  %25 = load ptr, ptr %6, align 8, !tbaa !59
  %26 = getelementptr inbounds nuw %struct.string_int_pair_st, ptr %25, i32 1
  store ptr %26, ptr %6, align 8, !tbaa !59
  br label %8, !llvm.loop !64

27:                                               ; preds = %8
  %28 = load ptr, ptr %7, align 8, !tbaa !21
  store ptr %28, ptr %4, align 8
  br label %29

29:                                               ; preds = %27, %19
  %30 = load ptr, ptr %4, align 8
  ret ptr %30
}

; Function Attrs: nounwind uwtable
define void @msg_cb(i32 noundef %0, i32 noundef %1, i32 noundef %2, ptr noundef %3, i64 noundef %4, ptr noundef %5, ptr noundef %6) #0 {
  %8 = alloca i32, align 4
  %9 = alloca i32, align 4
  %10 = alloca i32, align 4
  %11 = alloca ptr, align 8
  %12 = alloca i64, align 8
  %13 = alloca ptr, align 8
  %14 = alloca ptr, align 8
  %15 = alloca ptr, align 8
  %16 = alloca ptr, align 8
  %17 = alloca [128 x i8], align 16
  %18 = alloca ptr, align 8
  %19 = alloca ptr, align 8
  %20 = alloca ptr, align 8
  %21 = alloca ptr, align 8
  %22 = alloca ptr, align 8
  %23 = alloca i64, align 8
  %24 = alloca i64, align 8
  store i32 %0, ptr %8, align 4, !tbaa !3
  store i32 %1, ptr %9, align 4, !tbaa !3
  store i32 %2, ptr %10, align 4, !tbaa !3
  store ptr %3, ptr %11, align 8, !tbaa !57
  store i64 %4, ptr %12, align 8, !tbaa !38
  store ptr %5, ptr %13, align 8, !tbaa !27
  store ptr %6, ptr %14, align 8, !tbaa !57
  call void @llvm.lifetime.start.p0(i64 8, ptr %15) #10
  %25 = load ptr, ptr %14, align 8, !tbaa !57
  store ptr %25, ptr %15, align 8, !tbaa !14
  call void @llvm.lifetime.start.p0(i64 8, ptr %16) #10
  %26 = load i32, ptr %8, align 4, !tbaa !3
  %27 = icmp ne i32 %26, 0
  %28 = select i1 %27, ptr @.str.51, ptr @.str.52
  store ptr %28, ptr %16, align 8, !tbaa !21
  call void @llvm.lifetime.start.p0(i64 128, ptr %17) #10
  call void @llvm.lifetime.start.p0(i64 8, ptr %18) #10
  call void @llvm.lifetime.start.p0(i64 8, ptr %19) #10
  store ptr @.str.53, ptr %19, align 8, !tbaa !21
  call void @llvm.lifetime.start.p0(i64 8, ptr %20) #10
  store ptr @.str.53, ptr %20, align 8, !tbaa !21
  call void @llvm.lifetime.start.p0(i64 8, ptr %21) #10
  store ptr @.str.53, ptr %21, align 8, !tbaa !21
  call void @llvm.lifetime.start.p0(i64 8, ptr %22) #10
  %29 = load ptr, ptr %11, align 8, !tbaa !57
  store ptr %29, ptr %22, align 8, !tbaa !21
  %30 = load i32, ptr %9, align 4, !tbaa !3
  %31 = icmp eq i32 %30, 768
  br i1 %31, label %50, label %32

32:                                               ; preds = %7
  %33 = load i32, ptr %9, align 4, !tbaa !3
  %34 = icmp eq i32 %33, 769
  br i1 %34, label %50, label %35

35:                                               ; preds = %32
  %36 = load i32, ptr %9, align 4, !tbaa !3
  %37 = icmp eq i32 %36, 770
  br i1 %37, label %50, label %38

38:                                               ; preds = %35
  %39 = load i32, ptr %9, align 4, !tbaa !3
  %40 = icmp eq i32 %39, 771
  br i1 %40, label %50, label %41

41:                                               ; preds = %38
  %42 = load i32, ptr %9, align 4, !tbaa !3
  %43 = icmp eq i32 %42, 772
  br i1 %43, label %50, label %44

44:                                               ; preds = %41
  %45 = load i32, ptr %9, align 4, !tbaa !3
  %46 = icmp eq i32 %45, 65279
  br i1 %46, label %50, label %47

47:                                               ; preds = %44
  %48 = load i32, ptr %9, align 4, !tbaa !3
  %49 = icmp eq i32 %48, 256
  br i1 %49, label %50, label %91

50:                                               ; preds = %47, %44, %41, %38, %35, %32, %7
  %51 = load i32, ptr %9, align 4, !tbaa !3
  %52 = call ptr @lookup(i32 noundef %51, ptr noundef @ssl_versions, ptr noundef @.str.54)
  store ptr %52, ptr %18, align 8, !tbaa !21
  %53 = load i32, ptr %10, align 4, !tbaa !3
  switch i32 %53, label %85 [
    i32 20, label %54
    i32 21, label %55
    i32 22, label %72
    i32 23, label %82
    i32 256, label %83
    i32 257, label %84
  ]

54:                                               ; preds = %50
  store ptr @.str.55, ptr %19, align 8, !tbaa !21
  br label %90

55:                                               ; preds = %50
  store ptr @.str.56, ptr %19, align 8, !tbaa !21
  store ptr @.str.57, ptr %20, align 8, !tbaa !21
  %56 = load i64, ptr %12, align 8, !tbaa !38
  %57 = icmp eq i64 %56, 2
  br i1 %57, label %58, label %71

58:                                               ; preds = %55
  %59 = load ptr, ptr %22, align 8, !tbaa !21
  %60 = getelementptr inbounds i8, ptr %59, i64 0
  %61 = load i8, ptr %60, align 1, !tbaa !29
  %62 = zext i8 %61 to i32
  switch i32 %62, label %65 [
    i32 1, label %63
    i32 2, label %64
  ]

63:                                               ; preds = %58
  store ptr @.str.58, ptr %20, align 8, !tbaa !21
  br label %65

64:                                               ; preds = %58
  store ptr @.str.59, ptr %20, align 8, !tbaa !21
  br label %65

65:                                               ; preds = %58, %64, %63
  %66 = load ptr, ptr %22, align 8, !tbaa !21
  %67 = getelementptr inbounds i8, ptr %66, i64 1
  %68 = load i8, ptr %67, align 1, !tbaa !29
  %69 = zext i8 %68 to i32
  %70 = call ptr @lookup(i32 noundef %69, ptr noundef @alert_types, ptr noundef @.str.60)
  store ptr %70, ptr %21, align 8, !tbaa !21
  br label %71

71:                                               ; preds = %65, %55
  br label %90

72:                                               ; preds = %50
  store ptr @.str.61, ptr %19, align 8, !tbaa !21
  store ptr @.str.54, ptr %20, align 8, !tbaa !21
  %73 = load i64, ptr %12, align 8, !tbaa !38
  %74 = icmp ugt i64 %73, 0
  br i1 %74, label %75, label %81

75:                                               ; preds = %72
  %76 = load ptr, ptr %22, align 8, !tbaa !21
  %77 = getelementptr inbounds i8, ptr %76, i64 0
  %78 = load i8, ptr %77, align 1, !tbaa !29
  %79 = zext i8 %78 to i32
  %80 = call ptr @lookup(i32 noundef %79, ptr noundef @handshakes, ptr noundef @.str.54)
  store ptr %80, ptr %20, align 8, !tbaa !21
  br label %81

81:                                               ; preds = %75, %72
  br label %90

82:                                               ; preds = %50
  store ptr @.str.62, ptr %19, align 8, !tbaa !21
  br label %90

83:                                               ; preds = %50
  store ptr @.str.63, ptr %19, align 8, !tbaa !21
  br label %90

84:                                               ; preds = %50
  store ptr @.str.64, ptr %19, align 8, !tbaa !21
  br label %90

85:                                               ; preds = %50
  %86 = getelementptr inbounds [128 x i8], ptr %17, i64 0, i64 0
  %87 = load i32, ptr %10, align 4, !tbaa !3
  %88 = call i32 (ptr, i64, ptr, ...) @BIO_snprintf(ptr noundef %86, i64 noundef 127, ptr noundef @.str.65, i32 noundef %87)
  %89 = getelementptr inbounds [128 x i8], ptr %17, i64 0, i64 0
  store ptr %89, ptr %19, align 8, !tbaa !21
  br label %90

90:                                               ; preds = %85, %84, %83, %82, %81, %71, %54
  br label %97

91:                                               ; preds = %47
  %92 = getelementptr inbounds [128 x i8], ptr %17, i64 0, i64 0
  %93 = load i32, ptr %9, align 4, !tbaa !3
  %94 = load i32, ptr %10, align 4, !tbaa !3
  %95 = call i32 (ptr, i64, ptr, ...) @BIO_snprintf(ptr noundef %92, i64 noundef 127, ptr noundef @.str.66, i32 noundef %93, i32 noundef %94)
  %96 = getelementptr inbounds [128 x i8], ptr %17, i64 0, i64 0
  store ptr %96, ptr %18, align 8, !tbaa !21
  br label %97

97:                                               ; preds = %91, %90
  %98 = load ptr, ptr %15, align 8, !tbaa !14
  %99 = load ptr, ptr %16, align 8, !tbaa !21
  %100 = load ptr, ptr %18, align 8, !tbaa !21
  %101 = load ptr, ptr %19, align 8, !tbaa !21
  %102 = load i64, ptr %12, align 8, !tbaa !38
  %103 = load ptr, ptr %20, align 8, !tbaa !21
  %104 = load ptr, ptr %21, align 8, !tbaa !21
  %105 = call i32 (ptr, ptr, ...) @BIO_printf(ptr noundef %98, ptr noundef @.str.67, ptr noundef %99, ptr noundef %100, ptr noundef %101, i64 noundef %102, ptr noundef %103, ptr noundef %104)
  %106 = load i64, ptr %12, align 8, !tbaa !38
  %107 = icmp ugt i64 %106, 0
  br i1 %107, label %108, label %147

108:                                              ; preds = %97
  call void @llvm.lifetime.start.p0(i64 8, ptr %23) #10
  call void @llvm.lifetime.start.p0(i64 8, ptr %24) #10
  %109 = load ptr, ptr %15, align 8, !tbaa !14
  %110 = call i32 (ptr, ptr, ...) @BIO_printf(ptr noundef %109, ptr noundef @.str.68)
  %111 = load i64, ptr %12, align 8, !tbaa !38
  store i64 %111, ptr %23, align 8, !tbaa !38
  store i64 0, ptr %24, align 8, !tbaa !38
  br label %112

112:                                              ; preds = %134, %108
  %113 = load i64, ptr %24, align 8, !tbaa !38
  %114 = load i64, ptr %23, align 8, !tbaa !38
  %115 = icmp ult i64 %113, %114
  br i1 %115, label %116, label %137

116:                                              ; preds = %112
  %117 = load i64, ptr %24, align 8, !tbaa !38
  %118 = urem i64 %117, 16
  %119 = icmp eq i64 %118, 0
  br i1 %119, label %120, label %126

120:                                              ; preds = %116
  %121 = load i64, ptr %24, align 8, !tbaa !38
  %122 = icmp ugt i64 %121, 0
  br i1 %122, label %123, label %126

123:                                              ; preds = %120
  %124 = load ptr, ptr %15, align 8, !tbaa !14
  %125 = call i32 (ptr, ptr, ...) @BIO_printf(ptr noundef %124, ptr noundef @.str.69)
  br label %126

126:                                              ; preds = %123, %120, %116
  %127 = load ptr, ptr %15, align 8, !tbaa !14
  %128 = load ptr, ptr %11, align 8, !tbaa !57
  %129 = load i64, ptr %24, align 8, !tbaa !38
  %130 = getelementptr inbounds nuw i8, ptr %128, i64 %129
  %131 = load i8, ptr %130, align 1, !tbaa !29
  %132 = zext i8 %131 to i32
  %133 = call i32 (ptr, ptr, ...) @BIO_printf(ptr noundef %127, ptr noundef @.str.70, i32 noundef %132)
  br label %134

134:                                              ; preds = %126
  %135 = load i64, ptr %24, align 8, !tbaa !38
  %136 = add i64 %135, 1
  store i64 %136, ptr %24, align 8, !tbaa !38
  br label %112, !llvm.loop !58

137:                                              ; preds = %112
  %138 = load i64, ptr %24, align 8, !tbaa !38
  %139 = load i64, ptr %12, align 8, !tbaa !38
  %140 = icmp ult i64 %138, %139
  br i1 %140, label %141, label %144

141:                                              ; preds = %137
  %142 = load ptr, ptr %15, align 8, !tbaa !14
  %143 = call i32 (ptr, ptr, ...) @BIO_printf(ptr noundef %142, ptr noundef @.str.71)
  br label %144

144:                                              ; preds = %141, %137
  %145 = load ptr, ptr %15, align 8, !tbaa !14
  %146 = call i32 (ptr, ptr, ...) @BIO_printf(ptr noundef %145, ptr noundef @.str.1)
  call void @llvm.lifetime.end.p0(i64 8, ptr %24) #10
  call void @llvm.lifetime.end.p0(i64 8, ptr %23) #10
  br label %147

147:                                              ; preds = %144, %97
  %148 = load ptr, ptr %15, align 8, !tbaa !14
  %149 = call i64 @BIO_ctrl(ptr noundef %148, i32 noundef 11, i64 noundef 0, ptr noundef null)
  call void @llvm.lifetime.end.p0(i64 8, ptr %22) #10
  call void @llvm.lifetime.end.p0(i64 8, ptr %21) #10
  call void @llvm.lifetime.end.p0(i64 8, ptr %20) #10
  call void @llvm.lifetime.end.p0(i64 8, ptr %19) #10
  call void @llvm.lifetime.end.p0(i64 8, ptr %18) #10
  call void @llvm.lifetime.end.p0(i64 128, ptr %17) #10
  call void @llvm.lifetime.end.p0(i64 8, ptr %16) #10
  call void @llvm.lifetime.end.p0(i64 8, ptr %15) #10
  ret void
}