; Function Attrs: nounwind uwtable
define void @msg_cb(i32 noundef %0, i32 noundef %1, i32 noundef %2, ptr noundef readonly captures(none) %3, i64 noundef %4, ptr noundef readnone captures(none) %5, ptr noundef %6) local_unnamed_addr #0 {
  %8 = alloca [128 x i8], align 16
  %.not = icmp eq i32 %0, 0
  %9 = select i1 %.not, ptr @.str.52, ptr @.str.51
  call void @llvm.lifetime.start.p0(i64 128, ptr nonnull %8) #6
  switch i32 %1, label %42 [
    i32 768, label %lookup.exit
    i32 256, label %.lr.ph.preheader
    i32 769, label %.lr.ph.preheader
    i32 770, label %.lr.ph.preheader
    i32 771, label %.lr.ph.preheader
    i32 772, label %.lr.ph.preheader
    i32 65279, label %.lr.ph.preheader
  ]

.lr.ph.preheader:                                 ; preds = %7, %7, %7, %7, %7, %7
  br label %.lr.ph

.lr.ph:                                           ; preds = %.lr.ph.preheader, %.lr.ph.i
  %.069.i92 = phi ptr [ %10, %.lr.ph.i ], [ @ssl_versions, %.lr.ph.preheader ]
  %10 = getelementptr inbounds nuw i8, ptr %.069.i92, i64 16
  %11 = load ptr, ptr %10, align 8, !tbaa !16
  %.not.i = icmp eq ptr %11, null
  br i1 %.not.i, label %lookup.exit, label %.lr.ph.i, !llvm.loop !18

.lr.ph.i:                                         ; preds = %.lr.ph
  %12 = getelementptr inbounds nuw i8, ptr %.069.i92, i64 24
  %13 = load i32, ptr %12, align 8, !tbaa !20
  %14 = icmp eq i32 %13, %1
  br i1 %14, label %lookup.exit, label %.lr.ph, !llvm.loop !18

lookup.exit:                                      ; preds = %.lr.ph.i, %.lr.ph, %7
  %.0.i = phi ptr [ @.str.154, %7 ], [ %11, %.lr.ph.i ], [ @.str.54, %.lr.ph ]
  switch i32 %2, label %40 [
    i32 20, label %lookup.exit71
    i32 21, label %15
    i32 22, label %27
    i32 23, label %37
    i32 256, label %38
    i32 257, label %39
  ]

15:                                               ; preds = %lookup.exit
  %16 = icmp eq i64 %4, 2
  br i1 %16, label %.lr.ph.i67.preheader, label %lookup.exit71

.lr.ph.i67.preheader:                             ; preds = %15
  %17 = load i8, ptr %3, align 1, !tbaa !15
  %switch.selectcmp = icmp eq i8 %17, 2
  %switch.select = select i1 %switch.selectcmp, ptr @.str.59, ptr @.str.57
  %switch.selectcmp64 = icmp eq i8 %17, 1
  %switch.select65 = select i1 %switch.selectcmp64, ptr @.str.58, ptr %switch.select
  %18 = getelementptr inbounds nuw i8, ptr %3, i64 1
  %19 = load i8, ptr %18, align 1, !tbaa !15
  %20 = zext i8 %19 to i32
  %21 = icmp eq i8 %19, 0
  br i1 %21, label %lookup.exit71.thread111, label %.lr.ph99

.lr.ph99:                                         ; preds = %.lr.ph.i67.preheader, %.lr.ph.i67
  %.069.i6898 = phi ptr [ %22, %.lr.ph.i67 ], [ @alert_types, %.lr.ph.i67.preheader ]
  %22 = getelementptr inbounds nuw i8, ptr %.069.i6898, i64 16
  %23 = load ptr, ptr %22, align 8, !tbaa !16
  %.not.i69 = icmp eq ptr %23, null
  br i1 %.not.i69, label %lookup.exit71, label %.lr.ph.i67, !llvm.loop !18

.lr.ph.i67:                                       ; preds = %.lr.ph99
  %24 = getelementptr inbounds nuw i8, ptr %.069.i6898, i64 24
  %25 = load i32, ptr %24, align 8, !tbaa !20
  %26 = icmp eq i32 %25, %20
  br i1 %26, label %lookup.exit71, label %.lr.ph99, !llvm.loop !18

27:                                               ; preds = %lookup.exit
  %.not62 = icmp eq i64 %4, 0
  br i1 %.not62, label %lookup.exit71.thread83, label %.lr.ph.i73.preheader

lookup.exit71.thread83:                           ; preds = %27
  %28 = tail call i32 (ptr, ptr, ...) @BIO_printf(ptr noundef %6, ptr noundef nonnull @.str.67, ptr noundef nonnull %9, ptr noundef nonnull %.0.i, ptr noundef nonnull @.str.61, i64 noundef 0, ptr noundef nonnull @.str.54, ptr noundef nonnull @.str.53) #6
  br label %59

.lr.ph.i73.preheader:                             ; preds = %27
  %29 = load i8, ptr %3, align 1, !tbaa !15
  %30 = zext i8 %29 to i32
  %31 = icmp eq i8 %29, 0
  br i1 %31, label %lookup.exit71.thread111, label %.lr.ph95

.lr.ph95:                                         ; preds = %.lr.ph.i73.preheader, %.lr.ph.i73
  %.069.i7494 = phi ptr [ %32, %.lr.ph.i73 ], [ @handshakes, %.lr.ph.i73.preheader ]
  %32 = getelementptr inbounds nuw i8, ptr %.069.i7494, i64 16
  %33 = load ptr, ptr %32, align 8, !tbaa !16
  %.not.i75 = icmp eq ptr %33, null
  br i1 %.not.i75, label %lookup.exit71, label %.lr.ph.i73, !llvm.loop !18

.lr.ph.i73:                                       ; preds = %.lr.ph95
  %34 = getelementptr inbounds nuw i8, ptr %.069.i7494, i64 24
  %35 = load i32, ptr %34, align 8, !tbaa !20
  %36 = icmp eq i32 %35, %30
  br i1 %36, label %lookup.exit71, label %.lr.ph95, !llvm.loop !18

37:                                               ; preds = %lookup.exit
  br label %lookup.exit71

38:                                               ; preds = %lookup.exit
  br label %lookup.exit71

39:                                               ; preds = %lookup.exit
  br label %lookup.exit71

40:                                               ; preds = %lookup.exit
  %41 = call i32 (ptr, i64, ptr, ...) @BIO_snprintf(ptr noundef nonnull %8, i64 noundef 127, ptr noundef nonnull @.str.65, i32 noundef %2) #6
  br label %lookup.exit71

42:                                               ; preds = %7
  %43 = call i32 (ptr, i64, ptr, ...) @BIO_snprintf(ptr noundef nonnull %8, i64 noundef 127, ptr noundef nonnull @.str.66, i32 noundef %1, i32 noundef %2) #6
  br label %lookup.exit71

lookup.exit71.thread111:                          ; preds = %.lr.ph.i73.preheader, %.lr.ph.i67.preheader
  %.1.ph108 = phi ptr [ @.str.196, %.lr.ph.i73.preheader ], [ %switch.select65, %.lr.ph.i67.preheader ]
  %.058.ph109 = phi ptr [ @.str.53, %.lr.ph.i73.preheader ], [ @.str.162, %.lr.ph.i67.preheader ]
  %.057.ph110 = phi ptr [ @.str.61, %.lr.ph.i73.preheader ], [ @.str.56, %.lr.ph.i67.preheader ]
  %44 = tail call i32 (ptr, ptr, ...) @BIO_printf(ptr noundef %6, ptr noundef nonnull @.str.67, ptr noundef nonnull %9, ptr noundef nonnull %.0.i, ptr noundef nonnull %.057.ph110, i64 noundef %4, ptr noundef %.1.ph108, ptr noundef nonnull %.058.ph109) #6
  br label %.lr.ph103.preheader

lookup.exit71:                                    ; preds = %.lr.ph95, %.lr.ph.i73, %.lr.ph99, %.lr.ph.i67, %lookup.exit, %37, %38, %39, %40, %15, %42
  %.1 = phi ptr [ @.str.53, %40 ], [ @.str.53, %39 ], [ @.str.53, %38 ], [ @.str.53, %37 ], [ @.str.57, %15 ], [ @.str.53, %42 ], [ @.str.53, %lookup.exit ], [ %switch.select65, %.lr.ph.i67 ], [ %switch.select65, %.lr.ph99 ], [ @.str.54, %.lr.ph95 ], [ %33, %.lr.ph.i73 ]
  %.058 = phi ptr [ @.str.53, %40 ], [ @.str.53, %39 ], [ @.str.53, %38 ], [ @.str.53, %37 ], [ @.str.53, %15 ], [ @.str.53, %42 ], [ @.str.53, %lookup.exit ], [ @.str.60, %.lr.ph99 ], [ %23, %.lr.ph.i67 ], [ @.str.53, %.lr.ph.i73 ], [ @.str.53, %.lr.ph95 ]
  %.057 = phi ptr [ %8, %40 ], [ @.str.64, %39 ], [ @.str.63, %38 ], [ @.str.62, %37 ], [ @.str.56, %15 ], [ @.str.53, %42 ], [ @.str.55, %lookup.exit ], [ @.str.56, %.lr.ph.i67 ], [ @.str.56, %.lr.ph99 ], [ @.str.61, %.lr.ph.i73 ], [ @.str.61, %.lr.ph95 ]
  %.056 = phi ptr [ %.0.i, %40 ], [ %.0.i, %39 ], [ %.0.i, %38 ], [ %.0.i, %37 ], [ %.0.i, %15 ], [ %8, %42 ], [ %.0.i, %lookup.exit ], [ %.0.i, %.lr.ph.i67 ], [ %.0.i, %.lr.ph99 ], [ %.0.i, %.lr.ph.i73 ], [ %.0.i, %.lr.ph95 ]
  %45 = call i32 (ptr, ptr, ...) @BIO_printf(ptr noundef %6, ptr noundef nonnull @.str.67, ptr noundef nonnull %9, ptr noundef %.056, ptr noundef nonnull %.057, i64 noundef %4, ptr noundef %.1, ptr noundef nonnull %.058) #6
  %.not63 = icmp eq i64 %4, 0
  br i1 %.not63, label %59, label %.lr.ph103.preheader

.lr.ph103.preheader:                              ; preds = %lookup.exit71, %lookup.exit71.thread111
  %46 = call i32 (ptr, ptr, ...) @BIO_printf(ptr noundef %6, ptr noundef nonnull @.str.68) #6
  br label %.lr.ph103

.lr.ph103:                                        ; preds = %.lr.ph103.preheader, %52
  %.0102 = phi i64 [ %57, %52 ], [ 0, %.lr.ph103.preheader ]
  %47 = and i64 %.0102, 15
  %48 = icmp eq i64 %47, 0
  %49 = icmp ne i64 %.0102, 0
  %or.cond13 = and i1 %49, %48
  br i1 %or.cond13, label %50, label %52

50:                                               ; preds = %.lr.ph103
  %51 = call i32 (ptr, ptr, ...) @BIO_printf(ptr noundef %6, ptr noundef nonnull @.str.69) #6
  br label %52

52:                                               ; preds = %50, %.lr.ph103
  %53 = getelementptr inbounds nuw i8, ptr %3, i64 %.0102
  %54 = load i8, ptr %53, align 1, !tbaa !15
  %55 = zext i8 %54 to i32
  %56 = call i32 (ptr, ptr, ...) @BIO_printf(ptr noundef %6, ptr noundef nonnull @.str.70, i32 noundef %55) #6
  %57 = add nuw i64 %.0102, 1
  %exitcond.not = icmp eq i64 %57, %4
  br i1 %exitcond.not, label %._crit_edge, label %.lr.ph103, !llvm.loop !44

._crit_edge:                                      ; preds = %52
  %58 = call i32 (ptr, ptr, ...) @BIO_printf(ptr noundef %6, ptr noundef nonnull @.str.1) #6
  br label %59

59:                                               ; preds = %lookup.exit71.thread83, %._crit_edge, %lookup.exit71
  %60 = call i64 @BIO_ctrl(ptr noundef %6, i32 noundef 11, i64 noundef 0, ptr noundef null) #6
  call void @llvm.lifetime.end.p0(i64 128, ptr nonnull %8) #6
  ret void
}